target datalayout = "e-m:e-p270:32:32-p271:32:32-p272:64:64-i64:64-i128:128-f80:128-n8:16:32:64-S128"
target triple = "x86_64-pc-linux-gnu"

@planner_hook = dso_local global ptr null, align 8

; Function Attrs: nounwind uwtable
define dso_local ptr @planner(ptr noundef %0, ptr noundef %1, i32 noundef %2, ptr noundef %3) #0 {
  %5 = alloca ptr, align 8
  %6 = alloca ptr, align 8
  %7 = alloca i32, align 4
  %8 = alloca ptr, align 8
  %9 = alloca ptr, align 8
  store ptr %0, ptr %5, align 8
  store ptr %1, ptr %6, align 8
  store i32 %2, ptr %7, align 4
  store ptr %3, ptr %8, align 8
  call void @llvm.lifetime.start.p0(i64 8, ptr %9) #8
  %10 = load ptr, ptr @planner_hook, align 8
  %11 = icmp ne ptr %10, null
  br i1 %11, label %12, label %19

12:                                               ; preds = %4
  %13 = load ptr, ptr @planner_hook, align 8
  %14 = load ptr, ptr %5, align 8
  %15 = load ptr, ptr %6, align 8
  %16 = load i32, ptr %7, align 4
  %17 = load ptr, ptr %8, align 8
  %18 = call ptr %13(ptr noundef %14, ptr noundef %15, i32 noundef %16, ptr noundef %17)
  store ptr %18, ptr %9, align 8
  br label %25

19:                                               ; preds = %4
  %20 = load ptr, ptr %5, align 8
  %21 = load ptr, ptr %6, align 8
  %22 = load i32, ptr %7, align 4
  %23 = load ptr, ptr %8, align 8
  %24 = call ptr @standard_planner(ptr noundef %20, ptr noundef %21, i32 noundef %22, ptr noundef %23)
  store ptr %24, ptr %9, align 8
  br label %25

25:                                               ; preds = %19, %12
  %26 = load ptr, ptr %9, align 8
  call void @llvm.lifetime.end.p0(i64 8, ptr %9) #8
  ret ptr %26
}