; Function Attrs: nounwind uwtable
define dso_local ptr @planner(ptr noundef %0, ptr noundef %1, i32 noundef %2, ptr noundef %3) local_unnamed_addr #0 {
  %5 = load ptr, ptr @planner_hook, align 8
  %.not = icmp eq ptr %5, null
  br i1 %.not, label %8, label %6

6:                                                ; preds = %4
  %7 = tail call ptr %5(ptr noundef %0, ptr noundef %1, i32 noundef %2, ptr noundef %3) #12
  br label %10

8:                                                ; preds = %4
  %9 = tail call ptr @standard_planner(ptr noundef %0, ptr poison, i32 noundef %2, ptr noundef %3)
  br label %10

10:                                               ; preds = %8, %6
  %.0 = phi ptr [ %7, %6 ], [ %9, %8 ]
  ret ptr %.0
}